; Function Attrs: mustprogress nounwind uwtable
define hidden { i64, i64 } @_ZN6hermes2vm18StatSamplingThread4stopEv(ptr noundef nonnull align 8 dereferenceable(184) %this) local_unnamed_addr #0 align 2 {
entry:
  %mExit_ = getelementptr inbounds i8, ptr %this, i64 8
  %call1.i.i.i.i = tail call noundef i32 @pthread_mutex_lock(ptr noundef nonnull %mExit_) #10
  %tobool.not.i.i.i = icmp eq i32 %call1.i.i.i.i, 0
  br i1 %tobool.not.i.i.i, label %_ZNSt11unique_lockISt5mutexED2Ev.exit, label %if.then.i.i.i

if.then.i.i.i:                                    ; preds = %entry
  tail call void @_ZSt20__throw_system_errori(i32 noundef %call1.i.i.i.i) #12
  unreachable

_ZNSt11unique_lockISt5mutexED2Ev.exit:            ; preds = %entry
  store i8 1, ptr %this, align 8
  %call1.i.i.i.i2 = tail call noundef i32 @pthread_mutex_unlock(ptr noundef nonnull %mExit_) #10
  %exitMonitor_ = getelementptr inbounds i8, ptr %this, i64 48
  tail call void @_ZNSt18condition_variable10notify_oneEv(ptr noundef nonnull align 8 dereferenceable(48) %exitMonitor_) #10
  %sampler_ = getelementptr inbounds i8, ptr %this, i64 176
  tail call void @_ZNSt6thread4joinEv(ptr noundef nonnull align 8 dereferenceable(8) %sampler_) #10
  %stats_.i = getelementptr inbounds i8, ptr %this, i64 104
  %call.i = tail call { i64, i64 } @_ZNK6hermes2vm12ProcessStats17getIntegratedInfoEv(ptr noundef nonnull align 8 dereferenceable(72) %stats_.i) #10
  ret { i64, i64 } %call.i
}